
fib.mps:     file format elf32-bigmips

Disassembly of section .init:

00400018 <_init>:
  400018:	27bdffe0 	addiu	sp,sp,-32
  40001c:	afbf0014 	sw	ra,20(sp)
  400020:	0c10003a 	jal	4000e8 <frame_dummy>
  400024:	00000000 	nop
  400028:	0c10007e 	jal	4001f8 <__do_global_ctors_aux>
  40002c:	00000000 	nop
  400030:	8fbf0014 	lw	ra,20(sp)
  400034:	27bd0020 	addiu	sp,sp,32
  400038:	03e00008 	jr	ra
  40003c:	00000000 	nop
Disassembly of section .text:

00400040 <_ftext>:
  400040:	27bdffe0 	addiu	sp,sp,-32
  400044:	afb10014 	sw	s1,20(sp)
  400048:	3c110044 	lui	s1,0x44
  40004c:	922202a8 	lbu	v0,680(s1)
  400050:	afbf0018 	sw	ra,24(sp)
  400054:	14400019 	bnez	v0,4000bc <_ftext+0x7c>
  400058:	afb00010 	sw	s0,16(sp)
  40005c:	3c100044 	lui	s0,0x44
  400060:	8e0202a4 	lw	v0,676(s0)
  400064:	00000000 	nop
  400068:	8c430000 	lw	v1,0(v0)
  40006c:	00000000 	nop
  400070:	10600009 	beqz	v1,400098 <_ftext+0x58>
  400074:	24420004 	addiu	v0,v0,4
  400078:	0060f809 	jalr	v1
  40007c:	ae0202a4 	sw	v0,676(s0)
  400080:	8e0202a4 	lw	v0,676(s0)
  400084:	00000000 	nop
  400088:	8c430000 	lw	v1,0(v0)
  40008c:	00000000 	nop
  400090:	1460fff9 	bnez	v1,400078 <_ftext+0x38>
  400094:	24420004 	addiu	v0,v0,4
  400098:	3c020000 	lui	v0,0x0
  40009c:	24420000 	addiu	v0,v0,0
  4000a0:	10400005 	beqz	v0,4000b8 <_ftext+0x78>
  4000a4:	24020001 	li	v0,1
  4000a8:	3c040040 	lui	a0,0x40
  4000ac:	0c000000 	jal	0 <_init-0x400018>
  4000b0:	24840288 	addiu	a0,a0,648
  4000b4:	24020001 	li	v0,1
  4000b8:	a22202a8 	sb	v0,680(s1)
  4000bc:	8fbf0018 	lw	ra,24(sp)
  4000c0:	8fb10014 	lw	s1,20(sp)
  4000c4:	8fb00010 	lw	s0,16(sp)
  4000c8:	03e00008 	jr	ra
  4000cc:	27bd0020 	addiu	sp,sp,32

004000d0 <call___do_global_dtors_aux>:
  4000d0:	27bdffe8 	addiu	sp,sp,-24
  4000d4:	afbf0010 	sw	ra,16(sp)
  4000d8:	8fbf0010 	lw	ra,16(sp)
  4000dc:	00000000 	nop
  4000e0:	03e00008 	jr	ra
  4000e4:	27bd0018 	addiu	sp,sp,24

004000e8 <frame_dummy>:
  4000e8:	3c020000 	lui	v0,0x0
  4000ec:	27bdffe8 	addiu	sp,sp,-24
  4000f0:	3c040040 	lui	a0,0x40
  4000f4:	3c050044 	lui	a1,0x44
  4000f8:	24420000 	addiu	v0,v0,0
  4000fc:	afbf0010 	sw	ra,16(sp)
  400100:	24840288 	addiu	a0,a0,648
  400104:	10400003 	beqz	v0,400114 <frame_dummy+0x2c>
  400108:	24a502ac 	addiu	a1,a1,684
  40010c:	0c000000 	jal	0 <_init-0x400018>
  400110:	00000000 	nop
  400114:	3c040044 	lui	a0,0x44
  400118:	8c83029c 	lw	v1,668(a0)
  40011c:	3c020000 	lui	v0,0x0
  400120:	10600007 	beqz	v1,400140 <frame_dummy+0x58>
  400124:	24590000 	addiu	t9,v0,0
  400128:	2484029c 	addiu	a0,a0,668
  40012c:	13200004 	beqz	t9,400140 <frame_dummy+0x58>
  400130:	00000000 	nop
  400134:	8fbf0010 	lw	ra,16(sp)
  400138:	03200008 	jr	t9
  40013c:	27bd0018 	addiu	sp,sp,24
  400140:	8fbf0010 	lw	ra,16(sp)
  400144:	00000000 	nop
  400148:	03e00008 	jr	ra
  40014c:	27bd0018 	addiu	sp,sp,24

00400150 <call_frame_dummy>:
  400150:	27bdffe8 	addiu	sp,sp,-24
  400154:	afbf0010 	sw	ra,16(sp)
  400158:	8fbf0010 	lw	ra,16(sp)
  40015c:	00000000 	nop
  400160:	03e00008 	jr	ra
  400164:	27bd0018 	addiu	sp,sp,24

00400168 <main>:
  400168:	27bdffe8 	addiu	sp,sp,-24
  40016c:	afbe0010 	sw	s8,16(sp)
  400170:	03a0f021 	move	s8,sp
  400174:	afc0000c 	sw	zero,12(s8)
  400178:	24020001 	li	v0,1
  40017c:	afc20008 	sw	v0,8(s8)
  400180:	afc00004 	sw	zero,4(s8)
  400184:	afc00000 	sw	zero,0(s8)
  400188:	08100073 	j	4001cc <main+0x64>
  40018c:	00000000 	nop
  400190:	8fc3000c 	lw	v1,12(s8)
  400194:	8fc20008 	lw	v0,8(s8)
  400198:	00000000 	nop
  40019c:	00621021 	addu	v0,v1,v0
  4001a0:	afc20004 	sw	v0,4(s8)
  4001a4:	8fc20008 	lw	v0,8(s8)
  4001a8:	00000000 	nop
  4001ac:	afc2000c 	sw	v0,12(s8)
  4001b0:	8fc20004 	lw	v0,4(s8)
  4001b4:	00000000 	nop
  4001b8:	afc20008 	sw	v0,8(s8)
  4001bc:	8fc20000 	lw	v0,0(s8)
  4001c0:	00000000 	nop
  4001c4:	24420001 	addiu	v0,v0,1
  4001c8:	afc20000 	sw	v0,0(s8)
  4001cc:	8fc20000 	lw	v0,0(s8)
  4001d0:	00000000 	nop
  4001d4:	2842000a 	slti	v0,v0,10
  4001d8:	1440ffed 	bnez	v0,400190 <main+0x28>
  4001dc:	00000000 	nop
  4001e0:	8fc20004 	lw	v0,4(s8)
  4001e4:	03c0e821 	move	sp,s8
  4001e8:	8fbe0010 	lw	s8,16(sp)
  4001ec:	27bd0018 	addiu	sp,sp,24
  4001f0:	03e00008 	jr	ra
  4001f4:	00000000 	nop

004001f8 <__do_global_ctors_aux>:
  4001f8:	3c020044 	lui	v0,0x44
  4001fc:	24420290 	addiu	v0,v0,656
  400200:	8c44fffc 	lw	a0,-4(v0)
  400204:	27bdffe0 	addiu	sp,sp,-32
  400208:	2403ffff 	li	v1,-1
  40020c:	afb00010 	sw	s0,16(sp)
  400210:	afbf0018 	sw	ra,24(sp)
  400214:	afb10014 	sw	s1,20(sp)
  400218:	10830008 	beq	a0,v1,40023c <__do_global_ctors_aux+0x44>
  40021c:	2450fffc 	addiu	s0,v0,-4
  400220:	2411ffff 	li	s1,-1
  400224:	0080f809 	jalr	a0
  400228:	2610fffc 	addiu	s0,s0,-4
  40022c:	8e040000 	lw	a0,0(s0)
  400230:	00000000 	nop
  400234:	1491fffb 	bne	a0,s1,400224 <__do_global_ctors_aux+0x2c>
  400238:	00000000 	nop
  40023c:	8fbf0018 	lw	ra,24(sp)
  400240:	8fb10014 	lw	s1,20(sp)
  400244:	8fb00010 	lw	s0,16(sp)
  400248:	03e00008 	jr	ra
  40024c:	27bd0020 	addiu	sp,sp,32

00400250 <call___do_global_ctors_aux>:
  400250:	27bdffe8 	addiu	sp,sp,-24
  400254:	afbf0010 	sw	ra,16(sp)
  400258:	8fbf0010 	lw	ra,16(sp)
  40025c:	00000000 	nop
  400260:	03e00008 	jr	ra
  400264:	27bd0018 	addiu	sp,sp,24
Disassembly of section .fini:

00400268 <_fini>:
  400268:	27bdffe0 	addiu	sp,sp,-32
  40026c:	afbf0014 	sw	ra,20(sp)
  400270:	0c100010 	jal	400040 <_ftext>
  400274:	00000000 	nop
  400278:	8fbf0014 	lw	ra,20(sp)
  40027c:	27bd0020 	addiu	sp,sp,32
  400280:	03e00008 	jr	ra
  400284:	00000000 	nop